(dp0
S'neighbors'
p1
(lp2
(S'10.0.1.12'
p3
I7002
tp4
a(S'10.0.1.12'
p5
I7002
tp6
a(S'10.0.1.12'
p7
I7002
tp8
a(S'10.0.1.7'
p9
I7000
tp10
a(S'10.0.1.12'
p11
I7002
tp12
a(S'10.0.1.7'
p13
I7000
tp14
asS'alpha'
p15
I3
sS'ksize'
p16
I20
sS'id'
p17
S'\xf0\x1f\xa5&\xf1Q\xebL4\xa7R\xf6\xb4\x14)O)\xc4\x04\x14'
p18
s.